target datalayout = "e-m:e-p270:32:32-p271:32:32-p272:64:64-i64:64-i128:128-f80:128-n8:16:32:64-S128"
target triple = "x86_64-pc-linux-gnu"

@Gia_TimeStamp.Buffer = internal global [100 x i8] zeroinitializer, align 16

; Function Attrs: nounwind uwtable
define ptr @Gia_TimeStamp() #0 {
  %1 = alloca ptr, align 8
  %2 = alloca i64, align 8
  %3 = call i64 @time(ptr noundef %2) #11
  %4 = call ptr @localtime(ptr noundef %2) #11
  %5 = call ptr @asctime(ptr noundef %4) #11
  store ptr %5, ptr %1, align 8
  %6 = load ptr, ptr %1, align 8
  %7 = load ptr, ptr %1, align 8
  %8 = call i64 @strlen(ptr noundef %7) #12
  %9 = sub i64 %8, 1
  %10 = getelementptr inbounds i8, ptr %6, i64 %9
  store i8 0, ptr %10, align 1
  %11 = load ptr, ptr %1, align 8
  %12 = call ptr @strcpy(ptr noundef @Gia_TimeStamp.Buffer, ptr noundef %11) #11
  ret ptr @Gia_TimeStamp.Buffer
}