; Function Attrs: nounwind uwtable
define noundef nonnull ptr @Gia_TimeStamp() local_unnamed_addr #2 {
  %1 = alloca i64, align 8
  %2 = call i64 @time(ptr noundef nonnull %1) #36
  %3 = call ptr @localtime(ptr noundef nonnull %1) #36
  %4 = call ptr @asctime(ptr noundef %3) #36
  %5 = call i64 @strlen(ptr noundef nonnull dereferenceable(1) %4) #37
  %6 = getelementptr i8, ptr %4, i64 %5
  %7 = getelementptr i8, ptr %6, i64 -1
  store i8 0, ptr %7, align 1
  %8 = call ptr @strcpy(ptr noundef nonnull dereferenceable(1) @Gia_TimeStamp.Buffer, ptr noundef nonnull dereferenceable(1) %4) #36
  ret ptr @Gia_TimeStamp.Buffer
}